target datalayout = "e-m:e-p270:32:32-p271:32:32-p272:64:64-i64:64-i128:128-f80:128-n8:16:32:64-S128"
target triple = "x86_64-pc-linux-gnu"

%"class.cvc5::internal::NodeTemplate" = type { ptr }
%"class.cvc5::internal::theory::arrays::Info" = type { %"class.cvc5::context::CDO", %"class.cvc5::context::CDO", %"class.cvc5::context::CDO.0", %"class.cvc5::context::CDO.0", %"class.cvc5::context::CDO.0", %"class.cvc5::context::CDO.0", %"class.cvc5::context::CDO.0", %"class.cvc5::context::CDO.0", ptr, ptr, ptr }
%"class.cvc5::context::CDO" = type <{ %"class.cvc5::context::ContextObj", i8, [7 x i8] }>
%"class.cvc5::context::ContextObj" = type { ptr, ptr, ptr, ptr, ptr }
%"class.cvc5::context::CDO.0" = type { %"class.cvc5::context::ContextObj", %"class.cvc5::internal::NodeTemplate" }

; Function Attrs: mustprogress nounwind uwtable
define linkonce_odr hidden void @_ZN4cvc57context10ContextObjD2Ev(ptr noundef nonnull align 8 dereferenceable(40) %0) unnamed_addr #6 comdat align 2 {
  %2 = alloca ptr, align 8
  store ptr %0, ptr %2, align 8, !tbaa !53
  ret void
}

; Function Attrs: mustprogress nounwind uwtable
define linkonce_odr hidden void @_ZN4cvc58internal12NodeTemplateILb0EED2Ev(ptr noundef nonnull align 8 dereferenceable(8) %0) unnamed_addr #6 comdat align 2 {
  %2 = alloca ptr, align 8
  store ptr %0, ptr %2, align 8, !tbaa !34
  ret void
}

; Function Attrs: mustprogress nounwind uwtable
define linkonce_odr hidden void @_ZN4cvc57context3CDOIbED2Ev(ptr noundef nonnull align 8 dereferenceable(41) %0) unnamed_addr #6 comdat align 2 personality ptr @__gxx_personality_v0 {
  %2 = alloca ptr, align 8
  store ptr %0, ptr %2, align 8, !tbaa !25
  %3 = load ptr, ptr %2, align 8
  store ptr getelementptr inbounds inrange(-16, 32) ({ [6 x ptr] }, ptr @_ZTVN4cvc57context3CDOIbEE, i32 0, i32 0, i32 2), ptr %3, align 8, !tbaa !29
  invoke void @_ZN4cvc57context10ContextObj7destroyEv(ptr noundef nonnull align 8 dereferenceable(40) %3)
          to label %4 unwind label %5

4:                                                ; preds = %1
  call void @_ZN4cvc57context10ContextObjD2Ev(ptr noundef nonnull align 8 dereferenceable(40) %3) #3
  ret void

5:                                                ; preds = %1
  %6 = landingpad { ptr, i32 }
          catch ptr null
  %7 = extractvalue { ptr, i32 } %6, 0
  call void @__clang_call_terminate(ptr %7) #21
  unreachable
}

; Function Attrs: mustprogress nounwind uwtable
define linkonce_odr hidden void @_ZN4cvc57context3CDOINS_8internal12NodeTemplateILb0EEEED2Ev(ptr noundef nonnull align 8 dereferenceable(48) %0) unnamed_addr #6 comdat align 2 personality ptr @__gxx_personality_v0 {
  %2 = alloca ptr, align 8
  store ptr %0, ptr %2, align 8, !tbaa !37
  %3 = load ptr, ptr %2, align 8
  store ptr getelementptr inbounds inrange(-16, 32) ({ [6 x ptr] }, ptr @_ZTVN4cvc57context3CDOINS_8internal12NodeTemplateILb0EEEEE, i32 0, i32 0, i32 2), ptr %3, align 8, !tbaa !29
  invoke void @_ZN4cvc57context10ContextObj7destroyEv(ptr noundef nonnull align 8 dereferenceable(40) %3)
          to label %4 unwind label %6

4:                                                ; preds = %1
  %5 = getelementptr inbounds nuw %"class.cvc5::context::CDO.0", ptr %3, i32 0, i32 1
  call void @_ZN4cvc58internal12NodeTemplateILb0EED2Ev(ptr noundef nonnull align 8 dereferenceable(8) %5) #3
  call void @_ZN4cvc57context10ContextObjD2Ev(ptr noundef nonnull align 8 dereferenceable(40) %3) #3
  ret void

6:                                                ; preds = %1
  %7 = landingpad { ptr, i32 }
          catch ptr null
  %8 = extractvalue { ptr, i32 } %7, 0
  call void @__clang_call_terminate(ptr %8) #21
  unreachable
}

; Function Attrs: mustprogress nounwind uwtable
define linkonce_odr hidden void @_ZN4cvc57context10ContextObj10deleteSelfEv(ptr noundef nonnull align 8 dereferenceable(40) %0) #6 comdat align 2 {
  %2 = alloca ptr, align 8
  store ptr %0, ptr %2, align 8, !tbaa !53
  %3 = load ptr, ptr %2, align 8
  %4 = load ptr, ptr %3, align 8, !tbaa !29
  %5 = getelementptr inbounds ptr, ptr %4, i64 2
  %6 = load ptr, ptr %5, align 8
  call void %6(ptr noundef nonnull align 8 dereferenceable(40) %3) #3
  call void @_ZdlPv(ptr noundef %3) #3
  ret void
}

; Function Attrs: mustprogress nounwind uwtable
define hidden void @_ZN4cvc58internal6theory6arrays4InfoD2Ev(ptr noundef nonnull align 8 dereferenceable(408) %0) unnamed_addr #6 align 2 personality ptr @__gxx_personality_v0 {
  %2 = alloca ptr, align 8
  store ptr %0, ptr %2, align 8, !tbaa !3
  %3 = load ptr, ptr %2, align 8
  %4 = getelementptr inbounds nuw %"class.cvc5::internal::theory::arrays::Info", ptr %3, i32 0, i32 8
  %5 = load ptr, ptr %4, align 8, !tbaa !12
  invoke void @_ZN4cvc57context10ContextObj10deleteSelfEv(ptr noundef nonnull align 8 dereferenceable(40) %5)
          to label %6 unwind label %21

6:                                                ; preds = %1
  %7 = getelementptr inbounds nuw %"class.cvc5::internal::theory::arrays::Info", ptr %3, i32 0, i32 9
  %8 = load ptr, ptr %7, align 8, !tbaa !23
  invoke void @_ZN4cvc57context10ContextObj10deleteSelfEv(ptr noundef nonnull align 8 dereferenceable(40) %8)
          to label %9 unwind label %21

9:                                                ; preds = %6
  %10 = getelementptr inbounds nuw %"class.cvc5::internal::theory::arrays::Info", ptr %3, i32 0, i32 10
  %11 = load ptr, ptr %10, align 8, !tbaa !24
  invoke void @_ZN4cvc57context10ContextObj10deleteSelfEv(ptr noundef nonnull align 8 dereferenceable(40) %11)
          to label %12 unwind label %21

12:                                               ; preds = %9
  %13 = getelementptr inbounds nuw %"class.cvc5::internal::theory::arrays::Info", ptr %3, i32 0, i32 7
  call void @_ZN4cvc57context3CDOINS_8internal12NodeTemplateILb0EEEED2Ev(ptr noundef nonnull align 8 dereferenceable(48) %13) #3
  %14 = getelementptr inbounds nuw %"class.cvc5::internal::theory::arrays::Info", ptr %3, i32 0, i32 6
  call void @_ZN4cvc57context3CDOINS_8internal12NodeTemplateILb0EEEED2Ev(ptr noundef nonnull align 8 dereferenceable(48) %14) #3
  %15 = getelementptr inbounds nuw %"class.cvc5::internal::theory::arrays::Info", ptr %3, i32 0, i32 5
  call void @_ZN4cvc57context3CDOINS_8internal12NodeTemplateILb0EEEED2Ev(ptr noundef nonnull align 8 dereferenceable(48) %15) #3
  %16 = getelementptr inbounds nuw %"class.cvc5::internal::theory::arrays::Info", ptr %3, i32 0, i32 4
  call void @_ZN4cvc57context3CDOINS_8internal12NodeTemplateILb0EEEED2Ev(ptr noundef nonnull align 8 dereferenceable(48) %16) #3
  %17 = getelementptr inbounds nuw %"class.cvc5::internal::theory::arrays::Info", ptr %3, i32 0, i32 3
  call void @_ZN4cvc57context3CDOINS_8internal12NodeTemplateILb0EEEED2Ev(ptr noundef nonnull align 8 dereferenceable(48) %17) #3
  %18 = getelementptr inbounds nuw %"class.cvc5::internal::theory::arrays::Info", ptr %3, i32 0, i32 2
  call void @_ZN4cvc57context3CDOINS_8internal12NodeTemplateILb0EEEED2Ev(ptr noundef nonnull align 8 dereferenceable(48) %18) #3
  %19 = getelementptr inbounds nuw %"class.cvc5::internal::theory::arrays::Info", ptr %3, i32 0, i32 1
  call void @_ZN4cvc57context3CDOIbED2Ev(ptr noundef nonnull align 8 dereferenceable(41) %19) #3
  %20 = getelementptr inbounds nuw %"class.cvc5::internal::theory::arrays::Info", ptr %3, i32 0, i32 0
  call void @_ZN4cvc57context3CDOIbED2Ev(ptr noundef nonnull align 8 dereferenceable(41) %20) #3
  ret void

21:                                               ; preds = %9, %6, %1
  %22 = landingpad { ptr, i32 }
          catch ptr null
  %23 = extractvalue { ptr, i32 } %22, 0
  call void @__clang_call_terminate(ptr %23) #21
  unreachable
}