; Function Attrs: mustprogress nounwind uwtable
define hidden void @_ZN4cvc58internal6theory6arrays4InfoD2Ev(ptr noundef nonnull align 8 dereferenceable(408) initializes((336, 344)) %0) unnamed_addr #5 align 2 personality ptr @__gxx_personality_v0 {
  %2 = getelementptr inbounds nuw i8, ptr %0, i64 384
  %3 = load ptr, ptr %2, align 8, !tbaa !42
  %4 = load ptr, ptr %3, align 8, !tbaa !3
  %5 = getelementptr inbounds nuw i8, ptr %4, i64 16
  %6 = load ptr, ptr %5, align 8
  tail call void %6(ptr noundef nonnull align 8 dereferenceable(40) %3) #25
  tail call void @_ZdlPv(ptr noundef nonnull align 8 dereferenceable(40) %3) #25
  %7 = getelementptr inbounds nuw i8, ptr %0, i64 392
  %8 = load ptr, ptr %7, align 8, !tbaa !46
  %9 = load ptr, ptr %8, align 8, !tbaa !3
  %10 = getelementptr inbounds nuw i8, ptr %9, i64 16
  %11 = load ptr, ptr %10, align 8
  tail call void %11(ptr noundef nonnull align 8 dereferenceable(40) %8) #25
  tail call void @_ZdlPv(ptr noundef nonnull align 8 dereferenceable(40) %8) #25
  %12 = getelementptr inbounds nuw i8, ptr %0, i64 400
  %13 = load ptr, ptr %12, align 8, !tbaa !47
  %14 = load ptr, ptr %13, align 8, !tbaa !3
  %15 = getelementptr inbounds nuw i8, ptr %14, i64 16
  %16 = load ptr, ptr %15, align 8
  tail call void %16(ptr noundef nonnull align 8 dereferenceable(40) %13) #25
  tail call void @_ZdlPv(ptr noundef nonnull align 8 dereferenceable(40) %13) #25
  %17 = getelementptr inbounds nuw i8, ptr %0, i64 336
  store ptr getelementptr inbounds nuw inrange(-16, 32) (i8, ptr @_ZTVN4cvc57context3CDOINS_8internal12NodeTemplateILb0EEEEE, i64 16), ptr %17, align 8, !tbaa !3
  invoke void @_ZN4cvc57context10ContextObj7destroyEv(ptr noundef nonnull align 8 dereferenceable(48) %17)
          to label %_ZN4cvc57context3CDOINS_8internal12NodeTemplateILb0EEEED2Ev.exit unwind label %18

18:                                               ; preds = %1
  %19 = landingpad { ptr, i32 }
          catch ptr null
  %20 = extractvalue { ptr, i32 } %19, 0
  tail call void @__clang_call_terminate(ptr %20) #28
  unreachable

_ZN4cvc57context3CDOINS_8internal12NodeTemplateILb0EEEED2Ev.exit: ; preds = %1
  %21 = getelementptr inbounds nuw i8, ptr %0, i64 288
  store ptr getelementptr inbounds nuw inrange(-16, 32) (i8, ptr @_ZTVN4cvc57context3CDOINS_8internal12NodeTemplateILb0EEEEE, i64 16), ptr %21, align 8, !tbaa !3
  invoke void @_ZN4cvc57context10ContextObj7destroyEv(ptr noundef nonnull align 8 dereferenceable(48) %21)
          to label %_ZN4cvc57context3CDOINS_8internal12NodeTemplateILb0EEEED2Ev.exit1 unwind label %22

22:                                               ; preds = %_ZN4cvc57context3CDOINS_8internal12NodeTemplateILb0EEEED2Ev.exit
  %23 = landingpad { ptr, i32 }
          catch ptr null
  %24 = extractvalue { ptr, i32 } %23, 0
  tail call void @__clang_call_terminate(ptr %24) #28
  unreachable

_ZN4cvc57context3CDOINS_8internal12NodeTemplateILb0EEEED2Ev.exit1: ; preds = %_ZN4cvc57context3CDOINS_8internal12NodeTemplateILb0EEEED2Ev.exit
  %25 = getelementptr inbounds nuw i8, ptr %0, i64 240
  store ptr getelementptr inbounds nuw inrange(-16, 32) (i8, ptr @_ZTVN4cvc57context3CDOINS_8internal12NodeTemplateILb0EEEEE, i64 16), ptr %25, align 8, !tbaa !3
  invoke void @_ZN4cvc57context10ContextObj7destroyEv(ptr noundef nonnull align 8 dereferenceable(48) %25)
          to label %_ZN4cvc57context3CDOINS_8internal12NodeTemplateILb0EEEED2Ev.exit2 unwind label %26

26:                                               ; preds = %_ZN4cvc57context3CDOINS_8internal12NodeTemplateILb0EEEED2Ev.exit1
  %27 = landingpad { ptr, i32 }
          catch ptr null
  %28 = extractvalue { ptr, i32 } %27, 0
  tail call void @__clang_call_terminate(ptr %28) #28
  unreachable

_ZN4cvc57context3CDOINS_8internal12NodeTemplateILb0EEEED2Ev.exit2: ; preds = %_ZN4cvc57context3CDOINS_8internal12NodeTemplateILb0EEEED2Ev.exit1
  %29 = getelementptr inbounds nuw i8, ptr %0, i64 192
  store ptr getelementptr inbounds nuw inrange(-16, 32) (i8, ptr @_ZTVN4cvc57context3CDOINS_8internal12NodeTemplateILb0EEEEE, i64 16), ptr %29, align 8, !tbaa !3
  invoke void @_ZN4cvc57context10ContextObj7destroyEv(ptr noundef nonnull align 8 dereferenceable(48) %29)
          to label %_ZN4cvc57context3CDOINS_8internal12NodeTemplateILb0EEEED2Ev.exit3 unwind label %30

30:                                               ; preds = %_ZN4cvc57context3CDOINS_8internal12NodeTemplateILb0EEEED2Ev.exit2
  %31 = landingpad { ptr, i32 }
          catch ptr null
  %32 = extractvalue { ptr, i32 } %31, 0
  tail call void @__clang_call_terminate(ptr %32) #28
  unreachable

_ZN4cvc57context3CDOINS_8internal12NodeTemplateILb0EEEED2Ev.exit3: ; preds = %_ZN4cvc57context3CDOINS_8internal12NodeTemplateILb0EEEED2Ev.exit2
  %33 = getelementptr inbounds nuw i8, ptr %0, i64 144
  store ptr getelementptr inbounds nuw inrange(-16, 32) (i8, ptr @_ZTVN4cvc57context3CDOINS_8internal12NodeTemplateILb0EEEEE, i64 16), ptr %33, align 8, !tbaa !3
  invoke void @_ZN4cvc57context10ContextObj7destroyEv(ptr noundef nonnull align 8 dereferenceable(48) %33)
          to label %_ZN4cvc57context3CDOINS_8internal12NodeTemplateILb0EEEED2Ev.exit4 unwind label %34

34:                                               ; preds = %_ZN4cvc57context3CDOINS_8internal12NodeTemplateILb0EEEED2Ev.exit3
  %35 = landingpad { ptr, i32 }
          catch ptr null
  %36 = extractvalue { ptr, i32 } %35, 0
  tail call void @__clang_call_terminate(ptr %36) #28
  unreachable

_ZN4cvc57context3CDOINS_8internal12NodeTemplateILb0EEEED2Ev.exit4: ; preds = %_ZN4cvc57context3CDOINS_8internal12NodeTemplateILb0EEEED2Ev.exit3
  %37 = getelementptr inbounds nuw i8, ptr %0, i64 96
  store ptr getelementptr inbounds nuw inrange(-16, 32) (i8, ptr @_ZTVN4cvc57context3CDOINS_8internal12NodeTemplateILb0EEEEE, i64 16), ptr %37, align 8, !tbaa !3
  invoke void @_ZN4cvc57context10ContextObj7destroyEv(ptr noundef nonnull align 8 dereferenceable(48) %37)
          to label %_ZN4cvc57context3CDOINS_8internal12NodeTemplateILb0EEEED2Ev.exit5 unwind label %38

38:                                               ; preds = %_ZN4cvc57context3CDOINS_8internal12NodeTemplateILb0EEEED2Ev.exit4
  %39 = landingpad { ptr, i32 }
          catch ptr null
  %40 = extractvalue { ptr, i32 } %39, 0
  tail call void @__clang_call_terminate(ptr %40) #28
  unreachable

_ZN4cvc57context3CDOINS_8internal12NodeTemplateILb0EEEED2Ev.exit5: ; preds = %_ZN4cvc57context3CDOINS_8internal12NodeTemplateILb0EEEED2Ev.exit4
  %41 = getelementptr inbounds nuw i8, ptr %0, i64 48
  store ptr getelementptr inbounds nuw inrange(-16, 32) (i8, ptr @_ZTVN4cvc57context3CDOIbEE, i64 16), ptr %41, align 8, !tbaa !3
  invoke void @_ZN4cvc57context10ContextObj7destroyEv(ptr noundef nonnull align 8 dereferenceable(41) %41)
          to label %_ZN4cvc57context3CDOIbED2Ev.exit unwind label %42

42:                                               ; preds = %_ZN4cvc57context3CDOINS_8internal12NodeTemplateILb0EEEED2Ev.exit5
  %43 = landingpad { ptr, i32 }
          catch ptr null
  %44 = extractvalue { ptr, i32 } %43, 0
  tail call void @__clang_call_terminate(ptr %44) #28
  unreachable

_ZN4cvc57context3CDOIbED2Ev.exit:                 ; preds = %_ZN4cvc57context3CDOINS_8internal12NodeTemplateILb0EEEED2Ev.exit5
  store ptr getelementptr inbounds nuw inrange(-16, 32) (i8, ptr @_ZTVN4cvc57context3CDOIbEE, i64 16), ptr %0, align 8, !tbaa !3
  invoke void @_ZN4cvc57context10ContextObj7destroyEv(ptr noundef nonnull align 8 dereferenceable(41) %0)
          to label %_ZN4cvc57context3CDOIbED2Ev.exit6 unwind label %45

45:                                               ; preds = %_ZN4cvc57context3CDOIbED2Ev.exit
  %46 = landingpad { ptr, i32 }
          catch ptr null
  %47 = extractvalue { ptr, i32 } %46, 0
  tail call void @__clang_call_terminate(ptr %47) #28
  unreachable

_ZN4cvc57context3CDOIbED2Ev.exit6:                ; preds = %_ZN4cvc57context3CDOIbED2Ev.exit
  ret void
}